; Function Attrs: mustprogress nofree norecurse nosync nounwind willreturn memory(readwrite, inaccessiblemem: none) uwtable
define void @grpc_slice_buffer_swap(ptr noundef %0, ptr noundef %1) local_unnamed_addr #7 {
  %3 = alloca [6 x %struct.grpc_slice], align 16
  %4 = getelementptr inbounds nuw i8, ptr %0, i64 8
  %5 = load ptr, ptr %4, align 8, !tbaa !17
  %6 = load ptr, ptr %0, align 8, !tbaa !25
  %7 = ptrtoint ptr %5 to i64
  %8 = ptrtoint ptr %6 to i64
  %9 = sub i64 %7, %8
  %10 = ashr exact i64 %9, 5
  %11 = getelementptr inbounds nuw i8, ptr %1, i64 8
  %12 = load ptr, ptr %11, align 8, !tbaa !17
  %13 = load ptr, ptr %1, align 8, !tbaa !25
  %14 = ptrtoint ptr %12 to i64
  %15 = ptrtoint ptr %13 to i64
  %16 = sub i64 %14, %15
  %17 = ashr exact i64 %16, 5
  %18 = getelementptr inbounds nuw i8, ptr %0, i64 16
  %19 = load i64, ptr %18, align 8, !tbaa !13
  %20 = add i64 %19, %10
  %21 = getelementptr inbounds nuw i8, ptr %1, i64 16
  %22 = load i64, ptr %21, align 8, !tbaa !13
  %23 = add i64 %17, %22
  %24 = getelementptr inbounds nuw i8, ptr %0, i64 40
  %25 = icmp eq ptr %6, %24
  %26 = getelementptr inbounds nuw i8, ptr %1, i64 40
  %27 = icmp eq ptr %13, %26
  br i1 %25, label %28, label %35

28:                                               ; preds = %2
  br i1 %27, label %29, label %33

29:                                               ; preds = %28
  call void @llvm.lifetime.start.p0(i64 192, ptr nonnull %3)
  %30 = shl i64 %20, 5
  call void @llvm.memcpy.p0.p0.i64(ptr nonnull align 16 %3, ptr align 8 %6, i64 %30, i1 false)
  %31 = shl i64 %23, 5
  tail call void @llvm.memcpy.p0.p0.i64(ptr align 8 %6, ptr align 8 %13, i64 %31, i1 false)
  %32 = load ptr, ptr %1, align 8, !tbaa !25
  call void @llvm.memcpy.p0.p0.i64(ptr align 8 %32, ptr nonnull align 16 %3, i64 %30, i1 false)
  call void @llvm.lifetime.end.p0(i64 192, ptr nonnull %3)
  br label %39

33:                                               ; preds = %28
  store ptr %13, ptr %0, align 8, !tbaa !25
  store ptr %26, ptr %1, align 8, !tbaa !25
  %34 = shl i64 %20, 5
  tail call void @llvm.memcpy.p0.p0.i64(ptr nonnull align 8 %26, ptr nonnull align 8 %24, i64 %34, i1 false)
  br label %39

35:                                               ; preds = %2
  br i1 %27, label %36, label %38

36:                                               ; preds = %35
  store ptr %6, ptr %1, align 8, !tbaa !25
  store ptr %24, ptr %0, align 8, !tbaa !25
  %37 = shl i64 %23, 5
  tail call void @llvm.memcpy.p0.p0.i64(ptr nonnull align 8 %24, ptr nonnull align 8 %26, i64 %37, i1 false)
  br label %39

38:                                               ; preds = %35
  store ptr %13, ptr %0, align 8, !tbaa !64
  store ptr %6, ptr %1, align 8, !tbaa !64
  br label %39

39:                                               ; preds = %36, %38, %29, %33
  %40 = load ptr, ptr %0, align 8, !tbaa !25
  %41 = getelementptr inbounds nuw i8, ptr %40, i64 %16
  store ptr %41, ptr %4, align 8, !tbaa !17
  %42 = load ptr, ptr %1, align 8, !tbaa !25
  %43 = getelementptr inbounds nuw i8, ptr %42, i64 %9
  store ptr %43, ptr %11, align 8, !tbaa !17
  %44 = load i64, ptr %18, align 8, !tbaa !65
  %45 = load i64, ptr %21, align 8, !tbaa !65
  store i64 %45, ptr %18, align 8, !tbaa !65
  store i64 %44, ptr %21, align 8, !tbaa !65
  %46 = getelementptr inbounds nuw i8, ptr %0, i64 24
  %47 = getelementptr inbounds nuw i8, ptr %1, i64 24
  %48 = load i64, ptr %46, align 8, !tbaa !65
  %49 = load i64, ptr %47, align 8, !tbaa !65
  store i64 %49, ptr %46, align 8, !tbaa !65
  store i64 %48, ptr %47, align 8, !tbaa !65
  %50 = getelementptr inbounds nuw i8, ptr %0, i64 32
  %51 = getelementptr inbounds nuw i8, ptr %1, i64 32
  %52 = load i64, ptr %50, align 8, !tbaa !65
  %53 = load i64, ptr %51, align 8, !tbaa !65
  store i64 %53, ptr %50, align 8, !tbaa !65
  store i64 %52, ptr %51, align 8, !tbaa !65
  ret void
}